; Function Attrs: alwaysinline norecurse nounwind uwtable
define internal void @_ZN8LightGBM8Metadata16LoadInitialScoreERKNSt7__cxx1112basic_stringIcSt11char_traitsIcESaIcEEE.omp_outlined(ptr noalias noundef readonly captures(none) %0, ptr noalias readnone captures(none) %1, ptr noundef nonnull readonly align 4 captures(none) dereferenceable(4) %2, ptr noundef nonnull readonly align 8 captures(none) dereferenceable(116) %3, ptr noundef readonly captures(none) %4) #21 personality ptr @__gxx_personality_v0 {
  %6 = alloca i32, align 4
  %7 = alloca i32, align 4
  %8 = alloca i32, align 4
  %9 = alloca i32, align 4
  %10 = alloca double, align 8
  %11 = load i32, ptr %2, align 4, !tbaa !59
  %12 = icmp sgt i32 %11, 0
  br i1 %12, label %13, label %36

13:                                               ; preds = %5
  %14 = add nsw i32 %11, -1
  call void @llvm.lifetime.start.p0(i64 4, ptr nonnull %6) #20
  store i32 0, ptr %6, align 4, !tbaa !59
  call void @llvm.lifetime.start.p0(i64 4, ptr nonnull %7) #20
  store i32 %14, ptr %7, align 4, !tbaa !59
  call void @llvm.lifetime.start.p0(i64 4, ptr nonnull %8) #20
  store i32 1, ptr %8, align 4, !tbaa !59
  call void @llvm.lifetime.start.p0(i64 4, ptr nonnull %9) #20
  store i32 0, ptr %9, align 4, !tbaa !59
  %15 = load i32, ptr %0, align 4, !tbaa !59
  call void @__kmpc_for_static_init_4(ptr nonnull @1, i32 %15, i32 34, ptr nonnull %9, ptr nonnull %6, ptr nonnull %7, ptr nonnull %8, i32 1, i32 1)
  %16 = load i32, ptr %7, align 4, !tbaa !59
  %17 = call i32 @llvm.smin.i32(i32 %16, i32 %14)
  store i32 %17, ptr %7, align 4, !tbaa !59
  %18 = load i32, ptr %6, align 4, !tbaa !59
  %.not14 = icmp sgt i32 %18, %17
  br i1 %.not14, label %._crit_edge, label %.lr.ph

.lr.ph:                                           ; preds = %13
  %19 = getelementptr inbounds nuw i8, ptr %3, i64 8
  %20 = getelementptr inbounds nuw i8, ptr %4, i64 208
  %21 = sext i32 %18 to i64
  br label %22

22:                                               ; preds = %.lr.ph, %_ZN8LightGBM6CommonL8AvoidInfEd.exit
  %indvars.iv = phi i64 [ %21, %.lr.ph ], [ %indvars.iv.next, %_ZN8LightGBM6CommonL8AvoidInfEd.exit ]
  call void @llvm.lifetime.start.p0(i64 8, ptr nonnull %10) #20
  store double 0.000000e+00, ptr %10, align 8, !tbaa !93
  %23 = load ptr, ptr %19, align 8, !tbaa !58
  %24 = getelementptr inbounds nuw %"class.std::__cxx11::basic_string", ptr %23, i64 %indvars.iv
  %25 = load ptr, ptr %24, align 8, !tbaa !43
  invoke fastcc void @_ZN8LightGBM6CommonL4AtofEPKcPd(ptr noundef %25, ptr noundef %10)
          to label %26 unwind label %37

26:                                               ; preds = %22
  %27 = load double, ptr %10, align 8, !tbaa !93
  %28 = fcmp uno double %27, 0.000000e+00
  br i1 %28, label %_ZN8LightGBM6CommonL8AvoidInfEd.exit, label %29

29:                                               ; preds = %26
  %30 = fcmp ult double %27, 1.000000e+300
  br i1 %30, label %31, label %_ZN8LightGBM6CommonL8AvoidInfEd.exit

31:                                               ; preds = %29
  %.inv.i = fcmp ole double %27, -1.000000e+300
  %..i = select i1 %.inv.i, double -1.000000e+300, double %27
  br label %_ZN8LightGBM6CommonL8AvoidInfEd.exit

_ZN8LightGBM6CommonL8AvoidInfEd.exit:             ; preds = %31, %29, %26
  %.0.i = phi double [ 0.000000e+00, %26 ], [ 1.000000e+300, %29 ], [ %..i, %31 ]
  %32 = load ptr, ptr %20, align 8, !tbaa !95
  %33 = getelementptr inbounds nuw double, ptr %32, i64 %indvars.iv
  store double %.0.i, ptr %33, align 8, !tbaa !93
  call void @llvm.lifetime.end.p0(i64 8, ptr nonnull %10) #20
  %indvars.iv.next = add nsw i64 %indvars.iv, 1
  %34 = load i32, ptr %7, align 4, !tbaa !59
  %35 = sext i32 %34 to i64
  %.not.not = icmp slt i64 %indvars.iv, %35
  br i1 %.not.not, label %22, label %._crit_edge

._crit_edge:                                      ; preds = %_ZN8LightGBM6CommonL8AvoidInfEd.exit, %13
  call void @__kmpc_for_static_fini(ptr nonnull @1, i32 %15)
  call void @llvm.lifetime.end.p0(i64 4, ptr nonnull %9) #20
  call void @llvm.lifetime.end.p0(i64 4, ptr nonnull %8) #20
  call void @llvm.lifetime.end.p0(i64 4, ptr nonnull %7) #20
  call void @llvm.lifetime.end.p0(i64 4, ptr nonnull %6) #20
  br label %36

36:                                               ; preds = %._crit_edge, %5
  ret void

37:                                               ; preds = %22
  %38 = landingpad { ptr, i32 }
          catch ptr null
  %39 = extractvalue { ptr, i32 } %38, 0
  call void @__clang_call_terminate(ptr %39) #35
  unreachable
}